; Function Attrs: mustprogress uwtable
define void @_ZN2cv18currentUIFrameworkB5cxx11Ev(ptr dead_on_unwind noalias writable sret(%"class.std::__cxx11::basic_string") align 8 %0) local_unnamed_addr #3 personality ptr @__gxx_personality_v0 {
  %2 = alloca %"class.cv::utils::trace::details::Region", align 8
  %3 = alloca %"class.std::shared_ptr.6", align 8
  %4 = alloca %"class.std::__cxx11::basic_string", align 8
  %5 = alloca %"class.std::allocator", align 1
  call void @_ZN2cv5utils5trace7details6RegionC1ERKNS3_21LocationStaticStorageE(ptr noundef nonnull align 8 dereferenceable(12) %2, ptr noundef nonnull align 8 dereferenceable(32) @_ZZN2cv18currentUIFrameworkB5cxx11EvE26__cv_trace_location_fn1098)
  %6 = invoke noundef nonnull align 8 dereferenceable(16) ptr @_ZN2cv15highgui_backend19getCurrentUIBackendEv()
          to label %7 unwind label %67

7:                                                ; preds = %1
  %8 = load ptr, ptr %6, align 8
  store ptr %8, ptr %3, align 8
  %9 = getelementptr inbounds i8, ptr %3, i64 8
  %10 = getelementptr inbounds i8, ptr %6, i64 8
  %11 = load ptr, ptr %10, align 8
  store ptr %11, ptr %9, align 8
  %.not.i.i.i = icmp eq ptr %11, null
  br i1 %.not.i.i.i, label %_ZNSt10shared_ptrIN2cv15highgui_backend9UIBackendEEC2ERKS3_.exit, label %12

12:                                               ; preds = %7
  %13 = getelementptr inbounds i8, ptr %11, i64 8
  %14 = load i8, ptr @__libc_single_threaded, align 1
  %.not.i.i.i.i = icmp eq i8 %14, 0
  br i1 %.not.i.i.i.i, label %18, label %15

15:                                               ; preds = %12
  %16 = load i32, ptr %13, align 4
  %17 = add nsw i32 %16, 1
  store i32 %17, ptr %13, align 4
  br label %_ZNSt10shared_ptrIN2cv15highgui_backend9UIBackendEEC2ERKS3_.exit

18:                                               ; preds = %12
  %19 = atomicrmw volatile add ptr %13, i32 1 acq_rel, align 4
  %.pre = load ptr, ptr %3, align 8
  br label %_ZNSt10shared_ptrIN2cv15highgui_backend9UIBackendEEC2ERKS3_.exit

_ZNSt10shared_ptrIN2cv15highgui_backend9UIBackendEEC2ERKS3_.exit: ; preds = %7, %15, %18
  %20 = phi ptr [ %8, %7 ], [ %8, %15 ], [ %.pre, %18 ]
  %.not = icmp eq ptr %20, null
  br i1 %.not, label %71, label %21

21:                                               ; preds = %_ZNSt10shared_ptrIN2cv15highgui_backend9UIBackendEEC2ERKS3_.exit
  %22 = load ptr, ptr %20, align 8
  %23 = getelementptr inbounds i8, ptr %22, i64 48
  %24 = load ptr, ptr %23, align 8
  invoke void %24(ptr dead_on_unwind writable sret(%"class.std::__cxx11::basic_string") align 8 %0, ptr noundef nonnull align 8 dereferenceable(8) %20)
          to label %25 unwind label %69

25:                                               ; preds = %21
  %26 = load ptr, ptr %9, align 8
  %.not.i.i.i8 = icmp eq ptr %26, null
  br i1 %.not.i.i.i8, label %_ZNSt10shared_ptrIN2cv15highgui_backend9UIBackendEED2Ev.exit, label %27

27:                                               ; preds = %25
  %28 = getelementptr inbounds i8, ptr %26, i64 8
  %29 = load atomic i64, ptr %28 acquire, align 8
  %30 = icmp eq i64 %29, 4294967297
  %31 = trunc i64 %29 to i32
  br i1 %30, label %32, label %37

32:                                               ; preds = %27
  store i32 0, ptr %28, align 8
  %33 = getelementptr inbounds i8, ptr %26, i64 12
  store i32 0, ptr %33, align 4
  %34 = load ptr, ptr %26, align 8
  %35 = getelementptr inbounds i8, ptr %34, i64 16
  %36 = load ptr, ptr %35, align 8
  call void %36(ptr noundef nonnull align 8 dereferenceable(16) %26) #20
  br label %_ZNSt16_Sp_counted_baseILN9__gnu_cxx12_Lock_policyE2EE24_M_release_last_use_coldEv.exit.sink.split.i.i.i.i

37:                                               ; preds = %27
  %38 = load i8, ptr @__libc_single_threaded, align 1
  %.not.i.i.i.i9 = icmp eq i8 %38, 0
  br i1 %.not.i.i.i.i9, label %41, label %39

39:                                               ; preds = %37
  %40 = add nsw i32 %31, -1
  store i32 %40, ptr %28, align 4
  br label %43

41:                                               ; preds = %37
  %42 = atomicrmw volatile add ptr %28, i32 -1 acq_rel, align 4
  br label %43

43:                                               ; preds = %41, %39
  %.0.i.i.i.i = phi i32 [ %31, %39 ], [ %42, %41 ]
  %44 = icmp eq i32 %.0.i.i.i.i, 1
  br i1 %44, label %45, label %_ZNSt10shared_ptrIN2cv15highgui_backend9UIBackendEED2Ev.exit

45:                                               ; preds = %43
  %46 = load ptr, ptr %26, align 8
  %47 = getelementptr inbounds i8, ptr %46, i64 16
  %48 = load ptr, ptr %47, align 8
  call void %48(ptr noundef nonnull align 8 dereferenceable(16) %26) #20
  %49 = getelementptr inbounds i8, ptr %26, i64 12
  %50 = load i8, ptr @__libc_single_threaded, align 1
  %.not.i.i.i.i.i.i = icmp eq i8 %50, 0
  br i1 %.not.i.i.i.i.i.i, label %54, label %51

51:                                               ; preds = %45
  %52 = load i32, ptr %49, align 4
  %53 = add nsw i32 %52, -1
  store i32 %53, ptr %49, align 4
  br label %56

54:                                               ; preds = %45
  %55 = atomicrmw volatile add ptr %49, i32 -1 acq_rel, align 4
  br label %56

56:                                               ; preds = %54, %51
  %.0.i.i.i.i.i.i = phi i32 [ %52, %51 ], [ %55, %54 ]
  %57 = icmp eq i32 %.0.i.i.i.i.i.i, 1
  br i1 %57, label %_ZNSt16_Sp_counted_baseILN9__gnu_cxx12_Lock_policyE2EE24_M_release_last_use_coldEv.exit.sink.split.i.i.i.i, label %_ZNSt10shared_ptrIN2cv15highgui_backend9UIBackendEED2Ev.exit

_ZNSt16_Sp_counted_baseILN9__gnu_cxx12_Lock_policyE2EE24_M_release_last_use_coldEv.exit.sink.split.i.i.i.i: ; preds = %56, %32
  %58 = load ptr, ptr %26, align 8
  %59 = getelementptr inbounds i8, ptr %58, i64 24
  %60 = load ptr, ptr %59, align 8
  call void %60(ptr noundef nonnull align 8 dereferenceable(16) %26) #20
  br label %_ZNSt10shared_ptrIN2cv15highgui_backend9UIBackendEED2Ev.exit

_ZNSt10shared_ptrIN2cv15highgui_backend9UIBackendEED2Ev.exit: ; preds = %25, %43, %56, %_ZNSt16_Sp_counted_baseILN9__gnu_cxx12_Lock_policyE2EE24_M_release_last_use_coldEv.exit.sink.split.i.i.i.i
  %61 = getelementptr inbounds i8, ptr %2, i64 8
  %62 = load i32, ptr %61, align 8
  %.not.i = icmp eq i32 %62, 0
  br i1 %.not.i, label %_ZN2cv5utils5trace7details6RegionD2Ev.exit, label %63

63:                                               ; preds = %_ZNSt10shared_ptrIN2cv15highgui_backend9UIBackendEED2Ev.exit
  invoke void @_ZN2cv5utils5trace7details6Region7destroyEv(ptr noundef nonnull align 8 dereferenceable(12) %2)
          to label %_ZN2cv5utils5trace7details6RegionD2Ev.exit unwind label %64

64:                                               ; preds = %63
  %65 = landingpad { ptr, i32 }
          catch ptr null
  %66 = extractvalue { ptr, i32 } %65, 0
  call void @__clang_call_terminate(ptr %66) #23
  unreachable

_ZN2cv5utils5trace7details6RegionD2Ev.exit:       ; preds = %_ZNSt10shared_ptrIN2cv15highgui_backend9UIBackendEED2Ev.exit, %63
  ret void

67:                                               ; preds = %1
  %68 = landingpad { ptr, i32 }
          cleanup
  br label %80

69:                                               ; preds = %21
  %70 = landingpad { ptr, i32 }
          cleanup
  br label %79

71:                                               ; preds = %_ZNSt10shared_ptrIN2cv15highgui_backend9UIBackendEEC2ERKS3_.exit
  call void @_ZNSaIcEC1Ev(ptr noundef nonnull align 1 dereferenceable(1) %5) #20
  invoke void @_ZNSt7__cxx1112basic_stringIcSt11char_traitsIcESaIcEEC1EPKcRKS3_(ptr noundef nonnull align 8 dereferenceable(32) %4, ptr noundef nonnull @.str.44, ptr noundef nonnull align 1 dereferenceable(1) %5)
          to label %72 unwind label %74

72:                                               ; preds = %71
  invoke void @_ZN2cv5errorEiRKNSt7__cxx1112basic_stringIcSt11char_traitsIcESaIcEEEPKcS9_i(i32 noundef -215, ptr noundef nonnull align 8 dereferenceable(32) %4, ptr noundef nonnull @__func__._ZN2cv18currentUIFrameworkB5cxx11Ev, ptr noundef nonnull @.str.1, i32 noundef 1111) #22
          to label %73 unwind label %76

73:                                               ; preds = %72
  unreachable

74:                                               ; preds = %71
  %75 = landingpad { ptr, i32 }
          cleanup
  br label %78

76:                                               ; preds = %72
  %77 = landingpad { ptr, i32 }
          cleanup
  call void @_ZNSt7__cxx1112basic_stringIcSt11char_traitsIcESaIcEED1Ev(ptr noundef nonnull align 8 dereferenceable(32) %4) #20
  br label %78

78:                                               ; preds = %76, %74
  %.pn = phi { ptr, i32 } [ %77, %76 ], [ %75, %74 ]
  call void @_ZNSaIcED1Ev(ptr noundef nonnull align 1 dereferenceable(1) %5) #20
  br label %79

79:                                               ; preds = %78, %69
  %.pn5 = phi { ptr, i32 } [ %70, %69 ], [ %.pn, %78 ]
  call void @_ZNSt10shared_ptrIN2cv15highgui_backend9UIBackendEED2Ev(ptr noundef nonnull align 8 dereferenceable(16) %3) #20
  br label %80

80:                                               ; preds = %79, %67
  %.pn5.pn = phi { ptr, i32 } [ %.pn5, %79 ], [ %68, %67 ]
  call void @_ZN2cv5utils5trace7details6RegionD2Ev(ptr noundef nonnull align 8 dereferenceable(12) %2) #20
  resume { ptr, i32 } %.pn5.pn
}